target datalayout = "e-m:e-p270:32:32-p271:32:32-p272:64:64-i64:64-i128:128-f80:128-n8:16:32:64-S128"
target triple = "x86_64-pc-linux-gnu"

%"class.duckdb_re2::Regexp" = type { i8, i8, i16, i16, i16, %union.anon, ptr, %union.anon.0 }
%union.anon = type { ptr }
%union.anon.0 = type { %struct.anon.1 }
%struct.anon.1 = type { i32, ptr }
%struct.anon.2 = type { i32, ptr }

; Function Attrs: mustprogress nounwind uwtable
define linkonce_odr hidden noundef ptr @_ZN10duckdb_re26Regexp3subEv(ptr noundef nonnull align 8 dereferenceable(40) %0) #0 comdat align 2 {
  %2 = alloca ptr, align 8
  %3 = alloca ptr, align 8
  store ptr %0, ptr %3, align 8, !tbaa !29
  %4 = load ptr, ptr %3, align 8
  %5 = getelementptr inbounds nuw %"class.duckdb_re2::Regexp", ptr %4, i32 0, i32 4
  %6 = load i16, ptr %5, align 2, !tbaa !79
  %7 = zext i16 %6 to i32
  %8 = icmp sle i32 %7, 1
  br i1 %8, label %9, label %11

9:                                                ; preds = %1
  %10 = getelementptr inbounds nuw %"class.duckdb_re2::Regexp", ptr %4, i32 0, i32 5
  store ptr %10, ptr %2, align 8
  br label %14

11:                                               ; preds = %1
  %12 = getelementptr inbounds nuw %"class.duckdb_re2::Regexp", ptr %4, i32 0, i32 5
  %13 = load ptr, ptr %12, align 8, !tbaa !33
  store ptr %13, ptr %2, align 8
  br label %14

14:                                               ; preds = %11, %9
  %15 = load ptr, ptr %2, align 8
  ret ptr %15
}

; Function Attrs: mustprogress nounwind uwtable
define linkonce_odr hidden noundef i32 @_ZN10duckdb_re26Regexp4nsubEv(ptr noundef nonnull align 8 dereferenceable(40) %0) #0 comdat align 2 {
  %2 = alloca ptr, align 8
  store ptr %0, ptr %2, align 8, !tbaa !29
  %3 = load ptr, ptr %2, align 8
  %4 = getelementptr inbounds nuw %"class.duckdb_re2::Regexp", ptr %3, i32 0, i32 4
  %5 = load i16, ptr %4, align 2, !tbaa !79
  %6 = zext i16 %5 to i32
  ret i32 %6
}

; Function Attrs: mustprogress nounwind uwtable
define linkonce_odr hidden noundef i32 @_ZN10duckdb_re26Regexp2opEv(ptr noundef nonnull align 8 dereferenceable(40) %0) #0 comdat align 2 {
  %2 = alloca ptr, align 8
  store ptr %0, ptr %2, align 8, !tbaa !29
  %3 = load ptr, ptr %2, align 8
  %4 = getelementptr inbounds nuw %"class.duckdb_re2::Regexp", ptr %3, i32 0, i32 0
  %5 = load i8, ptr %4, align 8, !tbaa !36
  %6 = zext i8 %5 to i32
  ret i32 %6
}

; Function Attrs: mustprogress uwtable
define hidden noundef ptr @_ZN10duckdb_re26Regexp13LeadingStringEPS0_PiPNS0_10ParseFlagsE(ptr noundef %0, ptr noundef %1, ptr noundef %2) #1 align 2 {
  %4 = alloca ptr, align 8
  %5 = alloca ptr, align 8
  %6 = alloca ptr, align 8
  %7 = alloca ptr, align 8
  store ptr %0, ptr %5, align 8, !tbaa !29
  store ptr %1, ptr %6, align 8, !tbaa !84
  store ptr %2, ptr %7, align 8, !tbaa !120
  br label %8

8:                                                ; preds = %18, %3
  %9 = load ptr, ptr %5, align 8, !tbaa !29
  %10 = call noundef i32 @_ZN10duckdb_re26Regexp2opEv(ptr noundef nonnull align 8 dereferenceable(40) %9)
  %11 = icmp eq i32 %10, 5
  br i1 %11, label %12, label %16

12:                                               ; preds = %8
  %13 = load ptr, ptr %5, align 8, !tbaa !29
  %14 = call noundef i32 @_ZN10duckdb_re26Regexp4nsubEv(ptr noundef nonnull align 8 dereferenceable(40) %13)
  %15 = icmp sgt i32 %14, 0
  br label %16

16:                                               ; preds = %12, %8
  %17 = phi i1 [ false, %8 ], [ %15, %12 ]
  br i1 %17, label %18, label %23

18:                                               ; preds = %16
  %19 = load ptr, ptr %5, align 8, !tbaa !29
  %20 = call noundef ptr @_ZN10duckdb_re26Regexp3subEv(ptr noundef nonnull align 8 dereferenceable(40) %19)
  %21 = getelementptr inbounds ptr, ptr %20, i64 0
  %22 = load ptr, ptr %21, align 8, !tbaa !29
  store ptr %22, ptr %5, align 8, !tbaa !29
  br label %8, !llvm.loop !121

23:                                               ; preds = %16
  %24 = load ptr, ptr %5, align 8, !tbaa !29
  %25 = getelementptr inbounds nuw %"class.duckdb_re2::Regexp", ptr %24, i32 0, i32 2
  %26 = load i16, ptr %25, align 2, !tbaa !44
  %27 = zext i16 %26 to i32
  %28 = and i32 %27, 1
  %29 = load ptr, ptr %7, align 8, !tbaa !120
  store i32 %28, ptr %29, align 4, !tbaa !10
  %30 = load ptr, ptr %5, align 8, !tbaa !29
  %31 = call noundef i32 @_ZN10duckdb_re26Regexp2opEv(ptr noundef nonnull align 8 dereferenceable(40) %30)
  %32 = icmp eq i32 %31, 3
  br i1 %32, label %33, label %37

33:                                               ; preds = %23
  %34 = load ptr, ptr %6, align 8, !tbaa !84
  store i32 1, ptr %34, align 4, !tbaa !3
  %35 = load ptr, ptr %5, align 8, !tbaa !29
  %36 = getelementptr inbounds nuw %"class.duckdb_re2::Regexp", ptr %35, i32 0, i32 7
  store ptr %36, ptr %4, align 8
  br label %53

37:                                               ; preds = %23
  %38 = load ptr, ptr %5, align 8, !tbaa !29
  %39 = call noundef i32 @_ZN10duckdb_re26Regexp2opEv(ptr noundef nonnull align 8 dereferenceable(40) %38)
  %40 = icmp eq i32 %39, 4
  br i1 %40, label %41, label %51

41:                                               ; preds = %37
  %42 = load ptr, ptr %5, align 8, !tbaa !29
  %43 = getelementptr inbounds nuw %"class.duckdb_re2::Regexp", ptr %42, i32 0, i32 7
  %44 = getelementptr inbounds nuw %struct.anon.2, ptr %43, i32 0, i32 0
  %45 = load i32, ptr %44, align 8, !tbaa !33
  %46 = load ptr, ptr %6, align 8, !tbaa !84
  store i32 %45, ptr %46, align 4, !tbaa !3
  %47 = load ptr, ptr %5, align 8, !tbaa !29
  %48 = getelementptr inbounds nuw %"class.duckdb_re2::Regexp", ptr %47, i32 0, i32 7
  %49 = getelementptr inbounds nuw %struct.anon.2, ptr %48, i32 0, i32 1
  %50 = load ptr, ptr %49, align 8, !tbaa !33
  store ptr %50, ptr %4, align 8
  br label %53

51:                                               ; preds = %37
  %52 = load ptr, ptr %6, align 8, !tbaa !84
  store i32 0, ptr %52, align 4, !tbaa !3
  store ptr null, ptr %4, align 8
  br label %53

53:                                               ; preds = %51, %41, %33
  %54 = load ptr, ptr %4, align 8
  ret ptr %54
}