; Function Attrs: mustprogress nofree norecurse nosync nounwind memory(read, argmem: readwrite, inaccessiblemem: none) uwtable
define hidden noundef ptr @_ZN10duckdb_re26Regexp13LeadingStringEPS0_PiPNS0_10ParseFlagsE(ptr noundef readonly captures(ret: address, provenance) %0, ptr noundef writeonly captures(none) %1, ptr noundef writeonly captures(none) %2) local_unnamed_addr #16 align 2 {
  %4 = load i8, ptr %0, align 8, !tbaa !26
  %5 = icmp eq i8 %4, 5
  br i1 %5, label %.lr.ph, label %.critedge

.lr.ph:                                           ; preds = %3, %12
  %.01417 = phi ptr [ %16, %12 ], [ %0, %3 ]
  %6 = getelementptr inbounds nuw i8, ptr %.01417, i64 6
  %7 = load i16, ptr %6, align 2, !tbaa !62
  %.not = icmp eq i16 %7, 0
  br i1 %.not, label %.thread, label %12

.thread:                                          ; preds = %.lr.ph
  %8 = getelementptr inbounds nuw i8, ptr %.01417, i64 2
  %9 = load i16, ptr %8, align 2, !tbaa !50
  %10 = and i16 %9, 1
  %11 = zext nneg i16 %10 to i32
  store i32 %11, ptr %2, align 4, !tbaa !99
  br label %30

12:                                               ; preds = %.lr.ph
  %13 = icmp eq i16 %7, 1
  %14 = getelementptr inbounds nuw i8, ptr %.01417, i64 8
  %15 = load ptr, ptr %14, align 8
  %.0.i = select i1 %13, ptr %14, ptr %15
  %16 = load ptr, ptr %.0.i, align 8, !tbaa !63
  %17 = load i8, ptr %16, align 8, !tbaa !26
  %18 = icmp eq i8 %17, 5
  br i1 %18, label %.lr.ph, label %.critedge, !llvm.loop !100

.critedge:                                        ; preds = %12, %3
  %.014.lcssa = phi ptr [ %0, %3 ], [ %16, %12 ]
  %.lcssa = phi i8 [ %4, %3 ], [ %17, %12 ]
  %19 = getelementptr inbounds nuw i8, ptr %.014.lcssa, i64 2
  %20 = load i16, ptr %19, align 2, !tbaa !50
  %21 = and i16 %20, 1
  %22 = zext nneg i16 %21 to i32
  store i32 %22, ptr %2, align 4, !tbaa !99
  switch i8 %.lcssa, label %30 [
    i8 3, label %23
    i8 4, label %25
  ]

23:                                               ; preds = %.critedge
  store i32 1, ptr %1, align 4, !tbaa !3
  %24 = getelementptr inbounds nuw i8, ptr %.014.lcssa, i64 24
  br label %31

25:                                               ; preds = %.critedge
  %26 = getelementptr inbounds nuw i8, ptr %.014.lcssa, i64 24
  %27 = load i32, ptr %26, align 8, !tbaa !27
  store i32 %27, ptr %1, align 4, !tbaa !3
  %28 = getelementptr inbounds nuw i8, ptr %.014.lcssa, i64 32
  %29 = load ptr, ptr %28, align 8, !tbaa !27
  br label %31

30:                                               ; preds = %.critedge, %.thread
  store i32 0, ptr %1, align 4, !tbaa !3
  br label %31

31:                                               ; preds = %30, %25, %23
  %.0 = phi ptr [ %24, %23 ], [ %29, %25 ], [ null, %30 ]
  ret ptr %.0
}